target datalayout = "e-m:e-p270:32:32-p271:32:32-p272:64:64-i64:64-i128:128-f80:128-n8:16:32:64-S128"
target triple = "x86_64-pc-linux-gnu"

%struct.AVFilterContext = type { ptr, ptr, ptr, ptr, ptr, i32, ptr, ptr, i32, ptr, ptr, i32, i32, ptr, ptr, ptr, ptr, i32, ptr, i32, i32 }
%struct.LUT2Context = type { ptr, %struct.FFFrameSync, i32, [4 x ptr], [4 x ptr], [6 x double], [4 x ptr], [4 x i32], [4 x i32], [4 x i32], [4 x i32], [4 x i32], [4 x i32], i32, i32, i32, i32, i32, i32, i32, ptr, ptr }
%struct.FFFrameSync = type { ptr, ptr, i32, %struct.AVRational, i64, ptr, ptr, i32, i32, i8, i8, ptr, i32, i32, i32, i32 }
%struct.AVRational = type { i32, i32 }
%struct.AVFilterFormatsConfig = type { ptr, ptr, ptr, ptr, ptr }

@query_formats.bit8_pix_fmts = internal constant [18 x i32] [i32 79, i32 5, i32 31, i32 14, i32 32, i32 78, i32 4, i32 33, i32 0, i32 13, i32 12, i32 138, i32 7, i32 6, i32 8, i32 71, i32 111, i32 -1], align 16
@query_formats.bit9_pix_fmts = internal constant [9 x i32] [i32 73, i32 173, i32 60, i32 70, i32 66, i32 81, i32 83, i32 85, i32 -1], align 16
@query_formats.bit10_pix_fmts = internal constant [10 x i32] [i32 168, i32 75, i32 163, i32 62, i32 64, i32 68, i32 87, i32 89, i32 91, i32 -1], align 16
@query_formats.bit12_pix_fmts = internal constant [10 x i32] [i32 123, i32 127, i32 131, i32 153, i32 185, i32 187, i32 166, i32 161, i32 135, i32 -1], align 16
@query_formats.bit14_pix_fmts = internal constant [6 x i32] [i32 125, i32 129, i32 133, i32 181, i32 137, i32 -1], align 16
@query_formats.bit16_pix_fmts = internal constant [10 x i32] [i32 45, i32 47, i32 49, i32 93, i32 95, i32 97, i32 77, i32 113, i32 30, i32 -1], align 16
@.str.35 = private unnamed_addr constant [30 x i8] c"Assertion %s failed at %s:%d\0A\00", align 1
@.str.36 = private unnamed_addr constant [2 x i8] c"0\00", align 1
@.str.37 = private unnamed_addr constant [22 x i8] c"libavfilter/vf_lut2.c\00", align 1

; Function Attrs: nounwind uwtable
define internal i32 @query_formats(ptr noundef %0, ptr noundef %1, ptr noundef %2) #0 {
  %4 = alloca i32, align 4
  %5 = alloca ptr, align 8
  %6 = alloca ptr, align 8
  %7 = alloca ptr, align 8
  %8 = alloca ptr, align 8
  %9 = alloca ptr, align 8
  %10 = alloca i32, align 4
  %11 = alloca i32, align 4
  store ptr %0, ptr %5, align 8, !tbaa !4
  store ptr %1, ptr %6, align 8, !tbaa !29
  store ptr %2, ptr %7, align 8, !tbaa !29
  call void @llvm.lifetime.start.p0(i64 8, ptr %8) #12
  %12 = load ptr, ptr %5, align 8, !tbaa !4
  %13 = getelementptr inbounds nuw %struct.AVFilterContext, ptr %12, i32 0, i32 9
  %14 = load ptr, ptr %13, align 8, !tbaa !9
  store ptr %14, ptr %8, align 8, !tbaa !22
  call void @llvm.lifetime.start.p0(i64 8, ptr %9) #12
  call void @llvm.lifetime.start.p0(i64 4, ptr %10) #12
  %15 = load ptr, ptr %8, align 8, !tbaa !22
  %16 = getelementptr inbounds nuw %struct.LUT2Context, ptr %15, i32 0, i32 19
  %17 = load i32, ptr %16, align 8, !tbaa !31
  %18 = icmp ne i32 %17, 0
  br i1 %18, label %24, label %19

19:                                               ; preds = %3
  %20 = load ptr, ptr %8, align 8, !tbaa !22
  %21 = getelementptr inbounds nuw %struct.LUT2Context, ptr %20, i32 0, i32 2
  %22 = load i32, ptr %21, align 8, !tbaa !38
  %23 = icmp ne i32 %22, 0
  br i1 %23, label %29, label %24

24:                                               ; preds = %19, %3
  %25 = load ptr, ptr %5, align 8, !tbaa !4
  %26 = load ptr, ptr %6, align 8, !tbaa !29
  %27 = load ptr, ptr %7, align 8, !tbaa !29
  %28 = call i32 @ff_set_common_formats_from_list2(ptr noundef %25, ptr noundef %26, ptr noundef %27, ptr noundef @query_formats.all_pix_fmts)
  store i32 %28, ptr %4, align 4
  store i32 1, ptr %11, align 4
  br label %62

29:                                               ; preds = %19
  %30 = call ptr @ff_make_format_list(ptr noundef @query_formats.all_pix_fmts)
  %31 = load ptr, ptr %6, align 8, !tbaa !29
  %32 = getelementptr inbounds ptr, ptr %31, i64 0
  %33 = load ptr, ptr %32, align 8, !tbaa !39
  %34 = getelementptr inbounds nuw %struct.AVFilterFormatsConfig, ptr %33, i32 0, i32 0
  %35 = call i32 @ff_formats_ref(ptr noundef %30, ptr noundef %34)
  store i32 %35, ptr %10, align 4, !tbaa !24
  %36 = load i32, ptr %10, align 4, !tbaa !24
  %37 = icmp slt i32 %36, 0
  br i1 %37, label %38, label %40

38:                                               ; preds = %29
  %39 = load i32, ptr %10, align 4, !tbaa !24
  store i32 %39, ptr %4, align 4
  store i32 1, ptr %11, align 4
  br label %62

40:                                               ; preds = %29
  %41 = load ptr, ptr %8, align 8, !tbaa !22
  %42 = getelementptr inbounds nuw %struct.LUT2Context, ptr %41, i32 0, i32 2
  %43 = load i32, ptr %42, align 8, !tbaa !38
  switch i32 %43, label %50 [
    i32 8, label %44
    i32 9, label %45
    i32 10, label %46
    i32 12, label %47
    i32 14, label %48
    i32 16, label %49
  ]

44:                                               ; preds = %40
  store ptr @query_formats.bit8_pix_fmts, ptr %9, align 8, !tbaa !41
  br label %54

45:                                               ; preds = %40
  store ptr @query_formats.bit9_pix_fmts, ptr %9, align 8, !tbaa !41
  br label %54

46:                                               ; preds = %40
  store ptr @query_formats.bit10_pix_fmts, ptr %9, align 8, !tbaa !41
  br label %54

47:                                               ; preds = %40
  store ptr @query_formats.bit12_pix_fmts, ptr %9, align 8, !tbaa !41
  br label %54

48:                                               ; preds = %40
  store ptr @query_formats.bit14_pix_fmts, ptr %9, align 8, !tbaa !41
  br label %54

49:                                               ; preds = %40
  store ptr @query_formats.bit16_pix_fmts, ptr %9, align 8, !tbaa !41
  br label %54

50:                                               ; preds = %40
  br label %51

51:                                               ; preds = %50
  call void (ptr, i32, ptr, ...) @av_log(ptr noundef null, i32 noundef 0, ptr noundef @.str.35, ptr noundef @.str.36, ptr noundef @.str.37, i32 noundef 196)
  call void @abort() #13
  unreachable

52:                                               ; No predecessors!
  br label %53

53:                                               ; preds = %52
  br label %54

54:                                               ; preds = %53, %49, %48, %47, %46, %45, %44
  %55 = load ptr, ptr %9, align 8, !tbaa !41
  %56 = call ptr @ff_make_format_list(ptr noundef %55)
  %57 = load ptr, ptr %7, align 8, !tbaa !29
  %58 = getelementptr inbounds ptr, ptr %57, i64 0
  %59 = load ptr, ptr %58, align 8, !tbaa !39
  %60 = getelementptr inbounds nuw %struct.AVFilterFormatsConfig, ptr %59, i32 0, i32 0
  %61 = call i32 @ff_formats_ref(ptr noundef %56, ptr noundef %60)
  store i32 %61, ptr %4, align 4
  store i32 1, ptr %11, align 4
  br label %62

62:                                               ; preds = %54, %38, %24
  call void @llvm.lifetime.end.p0(i64 4, ptr %10) #12
  call void @llvm.lifetime.end.p0(i64 8, ptr %9) #12
  call void @llvm.lifetime.end.p0(i64 8, ptr %8) #12
  %63 = load i32, ptr %4, align 4
  ret i32 %63
}