; Function Attrs: nounwind uwtable
define internal i32 @query_formats(ptr noundef %0, ptr noundef %1, ptr noundef %2) #0 {
  %4 = getelementptr inbounds nuw i8, ptr %0, i64 72
  %5 = load ptr, ptr %4, align 8, !tbaa !4
  %6 = getelementptr inbounds nuw i8, ptr %5, i64 376
  %7 = load i32, ptr %6, align 8, !tbaa !24
  %.not = icmp eq i32 %7, 0
  br i1 %.not, label %8, label %11

8:                                                ; preds = %3
  %9 = getelementptr inbounds nuw i8, ptr %5, i64 104
  %10 = load i32, ptr %9, align 8, !tbaa !32
  %.not14 = icmp eq i32 %10, 0
  br i1 %.not14, label %11, label %13

11:                                               ; preds = %8, %3
  %12 = tail call i32 @ff_set_common_formats_from_list2(ptr noundef nonnull %0, ptr noundef %1, ptr noundef %2, ptr noundef nonnull @query_formats.all_pix_fmts) #11
  br label %26

13:                                               ; preds = %8
  %14 = tail call ptr @ff_make_format_list(ptr noundef nonnull @query_formats.all_pix_fmts) #11
  %15 = load ptr, ptr %1, align 8, !tbaa !33
  %16 = tail call i32 @ff_formats_ref(ptr noundef %14, ptr noundef %15) #11
  %17 = icmp slt i32 %16, 0
  br i1 %17, label %26, label %18

18:                                               ; preds = %13
  %19 = load i32, ptr %9, align 8, !tbaa !32
  %switch.tableidx = add i32 %19, -8
  %20 = icmp ult i32 %switch.tableidx, 9
  %switch.maskindex = trunc i32 %switch.tableidx to i16
  %switch.shifted = lshr i16 343, %switch.maskindex
  %switch.lobit = trunc i16 %switch.shifted to i1
  %or.cond = select i1 %20, i1 %switch.lobit, i1 false
  br i1 %or.cond, label %switch.lookup, label %21

21:                                               ; preds = %18
  tail call void (ptr, i32, ptr, ...) @av_log(ptr noundef null, i32 noundef 0, ptr noundef nonnull @.str.35, ptr noundef nonnull @.str.36, ptr noundef nonnull @.str.37, i32 noundef 196) #11
  tail call void @abort() #12
  unreachable

switch.lookup:                                    ; preds = %18
  %22 = zext nneg i32 %switch.tableidx to i64
  %switch.gep = getelementptr inbounds nuw [9 x ptr], ptr @switch.table.query_formats, i64 0, i64 %22
  %switch.load = load ptr, ptr %switch.gep, align 8
  %23 = tail call ptr @ff_make_format_list(ptr noundef nonnull %switch.load) #11
  %24 = load ptr, ptr %2, align 8, !tbaa !33
  %25 = tail call i32 @ff_formats_ref(ptr noundef %23, ptr noundef %24) #11
  br label %26

26:                                               ; preds = %13, %switch.lookup, %11
  %.0 = phi i32 [ %12, %11 ], [ %25, %switch.lookup ], [ %16, %13 ]
  ret i32 %.0
}